target datalayout = "e-m:e-p270:32:32-p271:32:32-p272:64:64-i64:64-i128:128-f80:128-n8:16:32:64-S128"
target triple = "x86_64-pc-linux-gnu"

@.str.15 = private unnamed_addr constant [94 x i8] c"cli_mpool_strdup(): s == NULL. Please report to https://github.com/Cisco-Talos/clamav/issues\0A\00", align 1
@.str.16 = private unnamed_addr constant [56 x i8] c"cli_mpool_strdup(): Can't allocate memory (%lu bytes).\0A\00", align 1

; Function Attrs: nounwind uwtable
define ptr @cli_mpool_strdup(ptr noundef %0, ptr noundef %1) #0 {
  %3 = alloca ptr, align 8
  %4 = alloca ptr, align 8
  %5 = alloca ptr, align 8
  %6 = alloca ptr, align 8
  %7 = alloca i64, align 8
  store ptr %0, ptr %4, align 8
  store ptr %1, ptr %5, align 8
  %8 = load ptr, ptr %5, align 8
  %9 = icmp eq ptr %8, null
  br i1 %9, label %10, label %11

10:                                               ; preds = %2
  call void (ptr, ...) @cli_errmsg(ptr noundef @.str.15)
  store ptr null, ptr %3, align 8
  br label %28

11:                                               ; preds = %2
  %12 = load ptr, ptr %5, align 8
  %13 = call i64 @strlen(ptr noundef %12) #7
  %14 = add i64 %13, 1
  store i64 %14, ptr %7, align 8
  %15 = load ptr, ptr %4, align 8
  %16 = load i64, ptr %7, align 8
  %17 = call ptr @mpool_malloc(ptr noundef %15, i64 noundef %16)
  store ptr %17, ptr %6, align 8
  %18 = load ptr, ptr %6, align 8
  %19 = icmp ne ptr %18, null
  br i1 %19, label %22, label %20

20:                                               ; preds = %11
  %21 = load i64, ptr %7, align 8
  call void (ptr, ...) @cli_errmsg(ptr noundef @.str.16, i64 noundef %21)
  br label %26

22:                                               ; preds = %11
  %23 = load ptr, ptr %6, align 8
  %24 = load ptr, ptr %5, align 8
  %25 = load i64, ptr %7, align 8
  call void @llvm.memcpy.p0.p0.i64(ptr align 1 %23, ptr align 1 %24, i64 %25, i1 false)
  br label %26

26:                                               ; preds = %22, %20
  %27 = load ptr, ptr %6, align 8
  store ptr %27, ptr %3, align 8
  br label %28

28:                                               ; preds = %26, %10
  %29 = load ptr, ptr %3, align 8
  ret ptr %29
}