; Function Attrs: nounwind uwtable
define ptr @cli_mpool_strdup(ptr noundef %0, ptr noundef readonly %1) local_unnamed_addr #0 {
  %3 = icmp eq ptr %1, null
  br i1 %3, label %4, label %5

4:                                                ; preds = %2
  tail call void (ptr, ...) @cli_errmsg(ptr noundef nonnull @.str.15) #10
  br label %11

5:                                                ; preds = %2
  %6 = tail call i64 @strlen(ptr noundef nonnull dereferenceable(1) %1) #11
  %7 = add i64 %6, 1
  %8 = tail call ptr @mpool_malloc(ptr noundef %0, i64 noundef %7)
  %.not = icmp eq ptr %8, null
  br i1 %.not, label %9, label %10

9:                                                ; preds = %5
  tail call void (ptr, ...) @cli_errmsg(ptr noundef nonnull @.str.16, i64 noundef %7) #10
  br label %11

10:                                               ; preds = %5
  tail call void @llvm.memcpy.p0.p0.i64(ptr nonnull align 1 %8, ptr nonnull align 1 %1, i64 %7, i1 false)
  br label %11

11:                                               ; preds = %9, %10, %4
  %.0 = phi ptr [ null, %4 ], [ %8, %10 ], [ null, %9 ]
  ret ptr %.0
}